cigraph
Graph
p0
(I23
(lp1
(I22
I14
tp2
a(I22
I6
tp3
a(I21
I22
tp4
a(I21
I18
tp5
a(I21
I14
tp6
a(I21
I6
tp7
a(I20
I22
tp8
a(I20
I14
tp9
a(I19
I21
tp10
a(I19
I18
tp11
a(I19
I16
tp12
a(I19
I15
tp13
a(I19
I11
tp14
a(I19
I8
tp15
a(I19
I4
tp16
a(I19
I2
tp17
a(I18
I22
tp18
a(I17
I6
tp19
a(I17
I3
tp20
a(I16
I18
tp21
a(I15
I20
tp22
a(I15
I8
tp23
a(I15
I2
tp24
a(I15
I2
tp25
a(I15
I0
tp26
a(I15
I0
tp27
a(I14
I3
tp28
a(I13
I22
tp29
a(I13
I21
tp30
a(I13
I21
tp31
a(I13
I20
tp32
a(I13
I15
tp33
a(I13
I15
tp34
a(I13
I15
tp35
a(I13
I14
tp36
a(I13
I6
tp37
a(I13
I2
tp38
a(I13
I0
tp39
a(I13
I0
tp40
a(I12
I21
tp41
a(I12
I20
tp42
a(I12
I19
tp43
a(I12
I18
tp44
a(I12
I16
tp45
a(I12
I15
tp46
a(I12
I13
tp47
a(I12
I11
tp48
a(I12
I10
tp49
a(I12
I7
tp50
a(I12
I5
tp51
a(I12
I4
tp52
a(I12
I2
tp53
a(I12
I1
tp54
a(I11
I14
tp55
a(I11
I3
tp56
a(I10
I17
tp57
a(I10
I7
tp58
a(I10
I6
tp59
a(I10
I3
tp60
a(I8
I11
tp61
a(I7
I17
tp62
a(I6
I9
tp63
a(I5
I17
tp64
a(I5
I16
tp65
a(I5
I15
tp66
a(I5
I6
tp67
a(I4
I11
tp68
a(I3
I6
tp69
a(I2
I0
tp70
a(I1
I4
tp71
a(I0
I20
tp72
a(I0
I2
tp73
a(I0
I0
tp74
a(I0
I0
tp75
aI01
(dp76
(dp77
S'code'
p78
(lp79
V* s ++ = * p ++
p80
aVdouble v , tv ;
p81
aVfor ( n = MAX_WORK , s = work , p = ( char * ) is ; isgraph ( * p ) && -- n ; )
p82
aVif ( rs )
p83
aVv = 0. , nl = 0 ;
p84
aVconst char * is
p85
aV* rs = ( char * ) is + ( s - work )
p86
aVif ( rs )
p87
aVnl = n + 1
p88
aVreturn dmstor_ctx ( pj_get_default_ctx ( ) , is , rs ) ;
p89
aVchar * * rs
p90
aVfor ( v = 0. , nl = 0 ; nl < 3 ; nl = n + 1 )
p91
aVdmstor_ctx (projCtx ctx , const char * is , char * * rs)
p92
aVchar * p , * s , work [ MAX_WORK ] ;
p93
aVif ( ! ( isdigit ( * s ) || * s == '.' ) )
p94
aVn = MAX_WORK , s = work , p = ( char * ) is ;
p95
aVwhile ( isspace ( sign = * is ) )
p96
aV* rs = ( char * ) is
p97
aVif ( sign == '+' || sign == '-' )
p98
aVint sign , n , nl ;
p99
aV* s = '\u005c0'
p100
aVsign = * ( s = work )
p101
aVs ++
p102
asS'name'
p103
(lp104
S'5876'
p105
aS'5942'
p106
aS'5888'
p107
aS'5591'
p108
aS'5835'
p109
aS'5568'
p110
aS'5579'
p111
aS'5940'
p112
aS'5826'
p113
aS'5542'
p114
aS'5565'
p115
aS'5831'
p116
aS'5562'
p117
aS'5949'
p118
aS'5809'
p119
aS'5901'
p120
aS'5920'
p121
aS'5932'
p122
aS'5853'
p123
aS'5960'
p124
aS'5869'
p125
aS'5861'
p126
aS'5849'
p127
asS'filepath'
p128
(lp129
V/home/lyl/huawei_project/insertVul/old/PROJ/proj4/src/dmstor.c
p130
ag130
ag130
ag130
ag130
ag130
ag130
ag130
ag130
aV/home/lyl/huawei_project/insertVul/old/PROJ/proj4/src/dmstor.c
p131
ag130
ag130
ag130
ag130
ag130
ag130
ag130
ag130
ag130
ag130
ag130
ag130
ag130
asS'location'
p132
(lp133
V38:2:829:840
p134
aV31:1:645:657
p135
aV37:46:804:821
p136
aV98:5:2016:2017
p137
aV45:6:1064:1079
p138
aV28:24:567:580
p139
aV99:2:2073:2102
p140
aV33:5:665:666
p141
aV45:32:1090:1099
p142
aV24:1:481:530
p143
aV28:40:583:591
p144
aV45:23:1081:1086
p145
aV27:1:536:2115
p146
aV30:1:615:642
p147
aV46:6:1111:1137
p148
aV37:6:764:802
p149
aV36:8:731:749
p150
aV34:2:671:687
p151
aV43:5:1007:1032
p152
aV29:1:597:612
p153
aV39:1:843:852
p154
aV42:1:982:1000
p155
aV43:33:1035:1038
p156
asS'type'
p157
(lp158
VExpressionStatement
p159
aVIdentifierDeclStatement
p160
aVCondition
p161
aVCondition
p162
aVForInit
p163
aVParameter
p164
aVExpressionStatement
p165
aVCondition
p166
aVAssignmentExpr
p167
aVReturnStatement
p168
aVParameter
p169
aVCondition
p170
aVFunction
p171
aVIdentifierDeclStatement
p172
aVCondition
p173
aVForInit
p174
aVCondition
p175
aVExpressionStatement
p176
aVCondition
p177
aVIdentifierDeclStatement
p178
aVExpressionStatement
p179
aVExpressionStatement
p180
aVExpressionStatement
p181
asS'functionId'
p182
(lp183
S'5562'
p184
aS'5562'
p185
aS'5562'
p186
aS'5562'
p187
aS'5562'
p188
aS'5562'
p189
aS'5562'
p190
aS'5562'
p191
aS'5562'
p192
aS'5531'
p193
aS'5562'
p194
aS'5562'
p195
aS'5562'
p196
aS'5562'
p197
aS'5562'
p198
aS'5562'
p199
aS'5562'
p200
aS'5562'
p201
aS'5562'
p202
aS'5562'
p203
aS'5562'
p204
aS'5562'
p205
aS'5562'
p206
as(dp207
S'var'
p208
(lp209
Vs
p210
ag210
ag210
aVsign
p211
ag210
ag210
ag210
aV s
p212
aVsign
p213
ag213
ag213
aVn
p214
aVnl
p215
ag215
ag215
ag214
aNaVrs
p216
ag216
aVsign
p217
ag210
ag214
ag214
aVp
p218
ag218
ag210
aNag210
aVwork
p219
ag210
ag210
aVwork
p220
ag210
ag218
ag210
aVwork
p221
ag218
ag218
ag210
aNaNaNaNaNaNaNaNaNaNaNaNaNaNaNaNaVrs
p222
aVrs
p223
aVrs
p224
aVrs
p225
aVnl
p226
aNaNaVis
p227
aVis
p228
aVis
p229
aVis
p230
aVnl
p231
aNaNaVv
p232
ag210
ag218
ag210
ag218
astp233
Rp234
(dp235
b.