cigraph
Graph
p0
(I41
(lp1
(I37
I28
tp2
a(I37
I20
tp3
a(I37
I20
tp4
a(I37
I13
tp5
a(I37
I9
tp6
a(I35
I11
tp7
a(I32
I38
tp8
a(I30
I34
tp9
a(I30
I16
tp10
a(I28
I38
tp11
a(I28
I32
tp12
a(I28
I13
tp13
a(I26
I11
tp14
a(I26
I10
tp15
a(I26
I4
tp16
a(I21
I11
tp17
a(I21
I10
tp18
a(I21
I4
tp19
a(I16
I40
tp20
a(I13
I38
tp21
a(I13
I32
tp22
a(I13
I13
tp23
a(I13
I10
tp24
a(I12
I11
tp25
a(I12
I10
tp26
a(I12
I4
tp27
a(I11
I19
tp28
a(I11
I17
tp29
a(I10
I38
tp30
a(I10
I32
tp31
a(I10
I13
tp32
a(I9
I39
tp33
a(I9
I35
tp34
a(I9
I33
tp35
a(I9
I31
tp36
a(I9
I29
tp37
a(I9
I27
tp38
a(I9
I26
tp39
a(I9
I25
tp40
a(I9
I24
tp41
a(I9
I22
tp42
a(I9
I21
tp43
a(I9
I18
tp44
a(I9
I15
tp45
a(I9
I14
tp46
a(I9
I13
tp47
a(I9
I12
tp48
a(I9
I8
tp49
a(I9
I7
tp50
a(I9
I6
tp51
a(I9
I5
tp52
a(I9
I4
tp53
a(I9
I3
tp54
a(I9
I2
tp55
a(I6
I39
tp56
a(I6
I36
tp57
a(I6
I28
tp58
a(I6
I23
tp59
a(I6
I14
tp60
a(I6
I12
tp61
a(I6
I1
tp62
a(I6
I0
tp63
a(I3
I11
tp64
a(I3
I10
tp65
a(I3
I4
tp66
a(I34
I37
tp67
aI01
(dp68
(dp69
S'code'
p70
(lp71
V++ s
p72
aVreturn HUGE_VAL ;
p73
aVbreak ;
p74
aVn = 2
p75
aVif ( ( ! FIXREVERTER [ 38 ] && ( n < nl ) )
p76
aV)
p77
aVif ( nl )
p78
aVcase 'R' :
p79
aVcase 'r' :
p80
aVswitch ( * s )
p81
aVv += tv * vm [ n ]
p82
aVif ( ( n < nl ) && ! ( 0 ) )
p83
aVn = 4
p84
aVv += tv * vm [ nl ]
p85
aVskip :
p86
aVcase 'D' :
p87
aVresult = strtod ( nptr , endptr )
p88
aVfprintf ( stderr , "reached bug index 38\u005cn" )
p89
aVcase 'd' :
p90
aVfprintf ( stderr , "triggered bug index 38\u005cn" )
p91
aVreturn tv ;
p92
aVn = 0
p93
aVbreak ;
p94
aVgoto skip ;
p95
aVcase '"' :
p96
aVpj_ctx_set_errno ( ctx , - 16 )
p97
aVn = 1
p98
aVbreak ;
p99
aVv = tv
p100
aVcase '\u005c'' :
p101
aVchar * * endptr
p102
aVdefault :
p103
aVv = - v
p104
aVreturn HUGE_VAL ;
p105
aVreturn pj_strtod ( nptr , endptr ) ;
p106
aVif ( FIXREVERTER [ 38 ] )
p107
aVpj_ctx_set_errno ( ctx , - 16 )
p108
aVif ( ( tv = proj_strtod ( s , & s ) ) == HUGE_VAL )
p109
aVreturn v ;
p110
aVcontinue ;
p111
aVreturn result ;
p112
asS'name'
p113
(lp114
S'5743'
p115
aS'5749'
p116
aS'5766'
p117
aS'5767'
p118
aS'5669'
p119
aS'5668'
p120
aS'5762'
p121
aS'5764'
p122
aS'5765'
p123
aS'5785'
p124
aS'5645'
p125
aS'5706'
p126
aS'5721'
p127
aS'5727'
p128
aS'5725'
p129
aS'5784'
p130
aS'6043'
p131
aS'5688'
p132
aS'5783'
p133
aS'5697'
p134
aS'5790'
p135
aS'5779'
p136
aS'5778'
p137
aS'5737'
p138
aS'5771'
p139
aS'5657'
p140
aS'5773'
p141
aS'5772'
p142
aS'5739'
p143
aS'5777'
p144
aS'6010'
p145
aS'5735'
p146
aS'5594'
p147
aS'5655'
p148
aS'6018'
p149
aS'5714'
p150
aS'5751'
p151
aS'5792'
p152
aS'5576'
p153
aS'5720'
p154
aS'6035'
p155
asS'filepath'
p156
(lp157
V/home/lyl/huawei_project/insertVul/old/PROJ/proj4/src/dmstor.c
p158
ag158
ag158
ag158
ag158
ag158
ag158
ag158
ag158
ag158
ag158
ag158
ag158
ag158
ag158
ag158
aV/home/lyl/huawei_project/insertVul/old/PROJ/proj4/src/dmstor.c
p159
ag158
ag158
ag158
ag158
ag158
ag158
ag158
ag158
ag158
ag158
ag158
ag158
ag158
ag159
ag158
ag158
ag158
ag159
ag158
ag158
ag158
ag158
ag158
ag159
asS'location'
p160
(lp161
V61:3:1418:1421
p162
aV59:4:1393:1408
p163
aV55:10:1313:1318
p164
aV55:3:1306:1311
p165
aV77:2:1698:1699
p166
aV81:2:1761:1761
p167
aV57:7:1349:1350
p168
aV56:12:1332:1340
p169
aV56:2:1322:1330
p170
aV49:10:1216:1217
p171
aV88:2:1852:1867
p172
aV72:8:1564:1580
p173
aV66:8:1488:1493
p174
aV65:3:1462:1478
p175
aV66:2:1482:1486
p176
aV50:2:1224:1232
p177
aV121:12:2535:2564
p178
aV75:6:1649:1690
p179
aV50:12:1234:1242
p180
aV73:6:1589:1632
p181
aV48:3:1195:1204
p182
aV51:3:1247:1252
p183
aV51:10:1254:1259
p184
aV63:3:1437:1446
p185
aV54:2:1293:1301
p186
aV82:3:1768:1796
p187
aV53:3:1277:1282
p188
aV53:10:1284:1289
p189
aV62:3:1426:1432
p190
aV52:2:1263:1272
p191
aV104:24:2156:2168
p192
aV64:2:1450:1457
p193
aV97:2:2003:2009
p194
aV83:3:1801:1816
p195
aV130:4:2706:2736
p196
aV71:7:1537:1551
p197
aV58:4:1359:1387
p198
aV47:6:1153:1189
p199
aV100:1:2105:2113
p200
aV67:3:1498:1506
p201
aV123:12:2599:2612
p202
asS'type'
p203
(lp204
VExpressionStatement
p205
aVReturnStatement
p206
aVBreakStatement
p207
aVExpressionStatement
p208
aS'Statement'
p209
ag209
aVCondition
p210
aVLabel
p211
aVLabel
p212
aVCondition
p213
aVExpressionStatement
p214
aVCondition
p215
aVExpressionStatement
p216
aVExpressionStatement
p217
aVLabel
p218
aVLabel
p219
aVExpressionStatement
p220
aVExpressionStatement
p221
aVLabel
p222
aVExpressionStatement
p223
aVReturnStatement
p224
aVExpressionStatement
p225
aVBreakStatement
p226
aVGotoStatement
p227
aVLabel
p228
aVExpressionStatement
p229
aVExpressionStatement
p230
aVBreakStatement
p231
aVExpressionStatement
p232
aVLabel
p233
aVParameter
p234
aVLabel
p235
aVExpressionStatement
p236
aVReturnStatement
p237
aVReturnStatement
p238
aVCondition
p239
aVExpressionStatement
p240
aVCondition
p241
aVReturnStatement
p242
aVContinueStatement
p243
aVReturnStatement
p244
asS'functionId'
p245
(lp246
S'5562'
p247
aS'5562'
p248
aS'5562'
p249
aS'5562'
p250
aS'5562'
p251
aS'5562'
p252
aS'5562'
p253
aS'5562'
p254
aS'5562'
p255
aS'5562'
p256
aS'5562'
p257
aS'5562'
p258
aS'5562'
p259
aS'5562'
p260
aS'5562'
p261
aS'5562'
p262
aS'6007'
p263
aS'5562'
p264
aS'5562'
p265
aS'5562'
p266
aS'5562'
p267
aS'5562'
p268
aS'5562'
p269
aS'5562'
p270
aS'5562'
p271
aS'5562'
p272
aS'5562'
p273
aS'5562'
p274
aS'5562'
p275
aS'5562'
p276
aS'6007'
p277
aS'5562'
p278
aS'5562'
p279
aS'5562'
p280
aS'6007'
p281
aS'5562'
p282
aS'5562'
p283
aS'5562'
p284
aS'5562'
p285
aS'5562'
p286
aS'6007'
p287
as(dp288
S'var'
p289
(lp290
Vtv
p291
aVtv
p292
aNaVtv
p293
aNaNaVv
p294
aVendptr
p295
aVendptr
p296
ag294
ag294
ag294
aVn
p297
ag297
ag297
ag297
ag297
ag297
aVresult
p298
ag294
ag294
ag294
ag294
ag297
ag297
ag297
aNaNag294
ag294
ag294
aNaNaNaNaNaNaNaNaNaNaNaNaNaNaNaNaNaNaNaNaNaNaNaNaNaNaNaNaNaNaNag297
ag297
ag297
aNastp299
Rp300
(dp301
b.