cigraph
Graph
p0
(I47
(lp1
(I45
I39
tp2
a(I45
I37
tp3
a(I45
I34
tp4
a(I45
I33
tp5
a(I45
I32
tp6
a(I45
I30
tp7
a(I45
I29
tp8
a(I45
I28
tp9
a(I45
I27
tp10
a(I45
I25
tp11
a(I45
I24
tp12
a(I45
I20
tp13
a(I45
I16
tp14
a(I45
I15
tp15
a(I45
I14
tp16
a(I45
I13
tp17
a(I45
I9
tp18
a(I45
I7
tp19
a(I45
I6
tp20
a(I45
I5
tp21
a(I45
I4
tp22
a(I45
I3
tp23
a(I45
I2
tp24
a(I43
I44
tp25
a(I41
I45
tp26
a(I41
I31
tp27
a(I41
I23
tp28
a(I41
I23
tp29
a(I41
I14
tp30
a(I39
I12
tp31
a(I36
I42
tp32
a(I35
I38
tp33
a(I35
I17
tp34
a(I35
I8
tp35
a(I31
I42
tp36
a(I31
I36
tp37
a(I31
I14
tp38
a(I29
I12
tp39
a(I29
I11
tp40
a(I29
I4
tp41
a(I24
I12
tp42
a(I24
I11
tp43
a(I24
I4
tp44
a(I21
I44
tp45
a(I21
I38
tp46
a(I21
I18
tp47
a(I21
I18
tp48
a(I18
I46
tp49
a(I18
I44
tp50
a(I18
I43
tp51
a(I18
I21
tp52
a(I18
I17
tp53
a(I18
I10
tp54
a(I17
I46
tp55
a(I14
I42
tp56
a(I14
I36
tp57
a(I14
I14
tp58
a(I14
I11
tp59
a(I13
I12
tp60
a(I13
I11
tp61
a(I13
I4
tp62
a(I12
I22
tp63
a(I12
I19
tp64
a(I11
I42
tp65
a(I11
I36
tp66
a(I11
I14
tp67
a(I8
I44
tp68
a(I8
I43
tp69
a(I8
I21
tp70
a(I6
I40
tp71
a(I6
I33
tp72
a(I6
I31
tp73
a(I6
I26
tp74
a(I6
I15
tp75
a(I6
I13
tp76
a(I6
I1
tp77
a(I6
I0
tp78
a(I3
I12
tp79
a(I3
I11
tp80
a(I3
I4
tp81
a(I38
I41
tp82
aI01
(dp83
(dp84
S'code'
p85
(lp86
V++ s
p87
aVreturn HUGE_VAL ;
p88
aVbreak ;
p89
aVn = 2
p90
aVif ( ( ! FIXREVERTER [ 38 ] && ( n < nl ) )
p91
aV)
p92
aVif ( nl )
p93
aVcase 'R' :
p94
aVchar c , * cp = nptr ;
p95
aVcase 'r' :
p96
aV++ cp
p97
aVv += tv * vm [ n ]
p98
aVif ( ( n < nl ) && ! ( 0 ) )
p99
aVn = 4
p100
aVv += tv * vm [ nl ]
p101
aVskip :
p102
aVcase 'D' :
p103
aVresult = strtod ( nptr , endptr )
p104
aVif ( c == 'd' || c == 'D' )
p105
aVfprintf ( stderr , "reached bug index 38\u005cn" )
p106
aVcase 'd' :
p107
aVwhile ( ( c = * cp ) != '\u005c0' )
p108
aVfprintf ( stderr , "triggered bug index 38\u005cn" )
p109
aVreturn tv ;
p110
aVn = 0
p111
aVbreak ;
p112
aVgoto skip ;
p113
aVcase '"' :
p114
aVpj_ctx_set_errno ( ctx , - 16 )
p115
aVn = 1
p116
aVbreak ;
p117
aVv = tv
p118
aVcase '\u005c'' :
p119
aVcontinue ;
p120
aVdefault :
p121
aVchar * nptr
p122
aVv = - v
p123
aVreturn HUGE_VAL ;
p124
aVreturn pj_strtod ( nptr , endptr ) ;
p125
aVif ( FIXREVERTER [ 38 ] )
p126
aVpj_ctx_set_errno ( ctx , - 16 )
p127
aVif ( ( tv = proj_strtod ( s , & s ) ) == HUGE_VAL )
p128
aVreturn v ;
p129
aV* cp = '\u005c0'
p130
aV* cp = c
p131
aVswitch ( * s )
p132
aVreturn result ;
p133
asS'name'
p134
(lp135
S'5743'
p136
aS'5749'
p137
aS'5766'
p138
aS'5767'
p139
aS'5669'
p140
aS'5668'
p141
aS'5762'
p142
aS'5764'
p143
aS'6080'
p144
aS'5765'
p145
aS'6029'
p146
aS'5645'
p147
aS'5706'
p148
aS'5721'
p149
aS'5727'
p150
aS'5725'
p151
aS'5784'
p152
aS'6043'
p153
aS'6060'
p154
aS'5688'
p155
aS'5783'
p156
aS'6068'
p157
aS'5697'
p158
aS'5790'
p159
aS'5779'
p160
aS'5778'
p161
aS'5737'
p162
aS'5771'
p163
aS'5657'
p164
aS'5773'
p165
aS'5772'
p166
aS'5739'
p167
aS'5777'
p168
aS'5720'
p169
aS'5735'
p170
aS'6013'
p171
aS'5594'
p172
aS'5655'
p173
aS'6018'
p174
aS'5714'
p175
aS'5751'
p176
aS'5792'
p177
aS'5576'
p178
aS'6054'
p179
aS'6037'
p180
aS'5785'
p181
aS'6035'
p182
asS'filepath'
p183
(lp184
V/home/lyl/huawei_project/insertVul/old/PROJ/proj4/src/dmstor.c
p185
ag185
ag185
ag185
ag185
ag185
ag185
ag185
aV/home/lyl/huawei_project/insertVul/old/PROJ/proj4/src/dmstor.c
p186
ag185
ag186
ag185
ag185
ag185
ag185
ag185
ag185
ag186
ag186
ag185
ag185
ag186
ag185
ag185
ag185
ag185
ag185
ag185
ag185
ag185
ag185
ag185
ag185
ag185
ag185
ag186
ag185
ag185
ag186
ag185
ag185
ag185
ag185
ag186
ag186
ag185
ag186
asS'location'
p187
(lp188
V61:3:1418:1421
p189
aV59:4:1393:1408
p190
aV55:10:1313:1318
p191
aV55:3:1306:1311
p192
aV77:2:1698:1699
p193
aV81:2:1761:1761
p194
aV57:7:1349:1350
p195
aV56:12:1332:1340
p196
aV107:4:2179:2197
p197
aV56:2:1322:1330
p198
aV125:8:2632:2636
p199
aV88:2:1852:1867
p200
aV72:8:1564:1580
p201
aV66:8:1488:1493
p202
aV65:3:1462:1478
p203
aV66:2:1482:1486
p204
aV50:2:1224:1232
p205
aV121:12:2535:2564
p206
aV114:12:2345:2364
p207
aV75:6:1649:1690
p208
aV50:12:1234:1242
p209
aV113:11:2312:2328
p210
aV73:6:1589:1632
p211
aV48:3:1195:1204
p212
aV51:3:1247:1252
p213
aV51:10:1254:1259
p214
aV63:3:1437:1446
p215
aV54:2:1293:1301
p216
aV82:3:1768:1796
p217
aV53:3:1277:1282
p218
aV53:10:1284:1289
p219
aV62:3:1426:1432
p220
aV52:2:1263:1272
p221
aV67:3:1498:1506
p222
aV64:2:1450:1457
p223
aV104:12:2144:2153
p224
aV97:2:2003:2009
p225
aV83:3:1801:1816
p226
aV130:4:2706:2736
p227
aV71:7:1537:1551
p228
aV58:4:1359:1387
p229
aV47:6:1153:1189
p230
aV100:1:2105:2113
p231
aV120:12:2511:2521
p232
aV122:12:2578:2585
p233
aV49:10:1216:1217
p234
aV123:12:2599:2612
p235
asS'type'
p236
(lp237
VExpressionStatement
p238
aVReturnStatement
p239
aVBreakStatement
p240
aVExpressionStatement
p241
aS'Statement'
p242
ag242
aVCondition
p243
aVLabel
p244
aVIdentifierDeclStatement
p245
aVLabel
p246
aVExpressionStatement
p247
aVExpressionStatement
p248
aVCondition
p249
aVExpressionStatement
p250
aVExpressionStatement
p251
aVLabel
p252
aVLabel
p253
aVExpressionStatement
p254
aVCondition
p255
aVExpressionStatement
p256
aVLabel
p257
aVCondition
p258
aVExpressionStatement
p259
aVReturnStatement
p260
aVExpressionStatement
p261
aVBreakStatement
p262
aVGotoStatement
p263
aVLabel
p264
aVExpressionStatement
p265
aVExpressionStatement
p266
aVBreakStatement
p267
aVExpressionStatement
p268
aVLabel
p269
aVContinueStatement
p270
aVLabel
p271
aVParameter
p272
aVExpressionStatement
p273
aVReturnStatement
p274
aVReturnStatement
p275
aVCondition
p276
aVExpressionStatement
p277
aVCondition
p278
aVReturnStatement
p279
aVExpressionStatement
p280
aVExpressionStatement
p281
aVCondition
p282
aVReturnStatement
p283
asS'functionId'
p284
(lp285
S'5562'
p286
aS'5562'
p287
aS'5562'
p288
aS'5562'
p289
aS'5562'
p290
aS'5562'
p291
aS'5562'
p292
aS'5562'
p293
aS'6007'
p294
aS'5562'
p295
aS'6007'
p296
aS'5562'
p297
aS'5562'
p298
aS'5562'
p299
aS'5562'
p300
aS'5562'
p301
aS'5562'
p302
aS'6007'
p303
aS'6007'
p304
aS'5562'
p305
aS'5562'
p306
aS'6007'
p307
aS'5562'
p308
aS'5562'
p309
aS'5562'
p310
aS'5562'
p311
aS'5562'
p312
aS'5562'
p313
aS'5562'
p314
aS'5562'
p315
aS'5562'
p316
aS'5562'
p317
aS'5562'
p318
aS'5562'
p319
aS'5562'
p320
aS'6007'
p321
aS'5562'
p322
aS'5562'
p323
aS'6007'
p324
aS'5562'
p325
aS'5562'
p326
aS'5562'
p327
aS'5562'
p328
aS'6007'
p329
aS'6007'
p330
aS'5562'
p331
aS'6007'
p332
as(dp333
S'var'
p334
(lp335
NaNaNaNaNaNaNaNaNaNaNaNaNaNaNaNaNaNaNaNaNaNaNaVcp
p336
aNaVtv
p337
aVtv
p338
aNaVtv
p339
aNaVv
p340
aVnptr
p341
aVnptr
p342
aVnptr
p343
ag340
ag340
ag340
aVn
p344
ag344
ag344
ag344
ag344
ag344
aVc
p345
aNaNag345
aNaNaNaNaNaNaVresult
p346
ag340
ag340
ag340
ag340
ag344
ag344
ag344
aNaNag340
ag340
ag340
aVcp
p347
aVcp
p348
aVcp
p349
aNaNaNaNaNaNaNaNag344
ag344
ag344
aNastp350
Rp351
(dp352
b.