cigraph
Graph
p0
(I23
(lp1
(I22
I15
tp2
a(I22
I12
tp3
a(I21
I22
tp4
a(I21
I18
tp5
a(I21
I15
tp6
a(I21
I12
tp7
a(I20
I18
tp8
a(I19
I21
tp9
a(I19
I20
tp10
a(I19
I18
tp11
a(I19
I16
tp12
a(I19
I11
tp13
a(I19
I10
tp14
a(I19
I7
tp15
a(I19
I4
tp16
a(I19
I3
tp17
a(I18
I22
tp18
a(I17
I17
tp19
a(I17
I17
tp20
a(I17
I10
tp21
a(I17
I3
tp22
a(I17
I1
tp23
a(I16
I17
tp24
a(I16
I17
tp25
a(I16
I7
tp26
a(I16
I3
tp27
a(I16
I3
tp28
a(I16
I1
tp29
a(I15
I12
tp30
a(I14
I22
tp31
a(I14
I21
tp32
a(I14
I21
tp33
a(I14
I17
tp34
a(I14
I17
tp35
a(I14
I16
tp36
a(I14
I16
tp37
a(I14
I16
tp38
a(I14
I15
tp39
a(I14
I12
tp40
a(I14
I3
tp41
a(I14
I1
tp42
a(I13
I21
tp43
a(I13
I20
tp44
a(I13
I19
tp45
a(I13
I18
tp46
a(I13
I16
tp47
a(I13
I14
tp48
a(I13
I11
tp49
a(I13
I5
tp50
a(I13
I4
tp51
a(I13
I3
tp52
a(I13
I2
tp53
a(I13
I1
tp54
a(I12
I10
tp55
a(I12
I10
tp56
a(I11
I15
tp57
a(I11
I12
tp58
a(I10
I0
tp59
a(I9
I8
tp60
a(I7
I11
tp61
a(I6
I9
tp62
a(I5
I20
tp63
a(I5
I16
tp64
a(I4
I11
tp65
a(I3
I17
tp66
a(I2
I4
tp67
a(I1
I22
tp68
a(I1
I15
tp69
a(I1
I12
tp70
a(I0
I6
tp71
aI01
(dp72
(dp73
S'code'
p74
(lp75
Vif ( sign == '-' )
p76
aV* s = '\u005c0'
p77
aVdouble v , tv ;
p78
aVfor ( n = MAX_WORK , s = work , p = ( char * ) is ; isgraph ( * p ) && -- n ; )
p79
aVv = 0. , nl = 0 ;
p80
aVconst char * is
p81
aVv = - v
p82
aVnl = n + 1
p83
aVreturn dmstor_ctx ( pj_get_default_ctx ( ) , is , rs ) ;
p84
aVreturn v ;
p85
aVsign = ( p - sym ) >= 4 ? '-' : '+'
p86
aVfor ( v = 0. , nl = 0 ; nl < 3 ; nl = n + 1 )
p87
aVif ( * s && ( p = strchr ( sym , * s ) ) )
p88
aVdmstor_ctx (projCtx ctx , const char * is , char * * rs)
p89
aVchar * p , * s , work [ MAX_WORK ] ;
p90
aVif ( ! ( isdigit ( * s ) || * s == '.' ) )
p91
aVn = MAX_WORK , s = work , p = ( char * ) is ;
p92
aV* s ++ = * p ++
p93
aVif ( sign == '+' || sign == '-' )
p94
aVint sign , n , nl ;
p95
aVwhile ( isspace ( sign = * is ) )
p96
aVsign = * ( s = work )
p97
aVs ++
p98
asS'name'
p99
(lp100
S'5600'
p101
aS'5869'
p102
aS'5942'
p103
aS'5888'
p104
aS'5835'
p105
aS'5568'
p106
aS'5594'
p107
aS'5826'
p108
aS'5542'
p109
aS'5576'
p110
aS'5610'
p111
aS'5831'
p112
aS'5622'
p113
aS'5562'
p114
aS'5949'
p115
aS'5809'
p116
aS'5901'
p117
aS'5876'
p118
aS'5853'
p119
aS'5960'
p120
aS'5920'
p121
aS'5861'
p122
aS'5849'
p123
asS'filepath'
p124
(lp125
V/home/lyl/huawei_project/insertVul/old/PROJ/proj4/src/dmstor.c
p126
ag126
ag126
ag126
ag126
ag126
ag126
ag126
aV/home/lyl/huawei_project/insertVul/old/PROJ/proj4/src/dmstor.c
p127
ag126
ag126
ag126
ag126
ag126
ag126
ag126
ag126
ag126
ag126
ag126
ag126
ag126
ag126
asS'location'
p128
(lp129
V96:5:1988:1998
p130
aV39:1:843:852
p131
aV31:1:645:657
p132
aV37:46:804:821
p133
aV45:6:1064:1079
p134
aV28:24:567:580
p135
aV97:2:2003:2009
p136
aV45:32:1090:1099
p137
aV24:1:481:530
p138
aV100:1:2105:2113
p139
aV93:2:1938:1971
p140
aV45:23:1081:1086
p141
aV92:5:1905:1931
p142
aV27:1:536:2115
p143
aV30:1:615:642
p144
aV46:6:1111:1137
p145
aV37:6:764:802
p146
aV38:2:829:840
p147
aV43:5:1007:1032
p148
aV29:1:597:612
p149
aV36:8:731:749
p150
aV42:1:982:1000
p151
aV43:33:1035:1038
p152
asS'type'
p153
(lp154
VCondition
p155
aVExpressionStatement
p156
aVIdentifierDeclStatement
p157
aVCondition
p158
aVForInit
p159
aVParameter
p160
aVExpressionStatement
p161
aVAssignmentExpr
p162
aVReturnStatement
p163
aVReturnStatement
p164
aVExpressionStatement
p165
aVCondition
p166
aVCondition
p167
aVFunction
p168
aVIdentifierDeclStatement
p169
aVCondition
p170
aVForInit
p171
aVExpressionStatement
p172
aVCondition
p173
aVIdentifierDeclStatement
p174
aVCondition
p175
aVExpressionStatement
p176
aVExpressionStatement
p177
asS'functionId'
p178
(lp179
S'5562'
p180
aS'5562'
p181
aS'5562'
p182
aS'5562'
p183
aS'5562'
p184
aS'5562'
p185
aS'5562'
p186
aS'5562'
p187
aS'5531'
p188
aS'5562'
p189
aS'5562'
p190
aS'5562'
p191
aS'5562'
p192
aS'5562'
p193
aS'5562'
p194
aS'5562'
p195
aS'5562'
p196
aS'5562'
p197
aS'5562'
p198
aS'5562'
p199
aS'5562'
p200
aS'5562'
p201
aS'5562'
p202
as(dp203
S'var'
p204
(lp205
Vs
p206
ag206
ag206
aVsign
p207
ag206
ag206
aVsign
p208
aVsign
p209
ag209
ag209
aVn
p210
aVnl
p211
ag209
ag211
ag211
ag210
aNag206
aVp
p212
ag212
ag212
ag206
ag212
ag206
ag210
ag210
ag212
ag206
aNag206
ag206
aVwork
p213
ag206
ag212
aVwork
p214
ag206
ag212
ag206
ag212
ag212
ag206
aNaNaNaNaNaNaNaNaNaNaNaNaNag212
aNaNaVsign
p215
aNaVnl
p216
aVv
p217
aVis
p218
aVis
p219
aVnl
p220
aNag217
ag206
aV s
p221
aV s
p222
aNastp223
Rp224
(dp225
b.