cigraph
Graph
p0
(I6
(lp1
(I5
I3
tp2
a(I5
I2
tp3
a(I5
I1
tp4
a(I5
I0
tp5
a(I2
I3
tp6
a(I2
I0
tp7
a(I1
I2
tp8
a(I0
I3
tp9
a(I3
I4
tp10
aI01
(dp11
(dp12
S'code'
p13
(lp14
Vif ( rs )
p15
aVif ( rs )
p16
aV* rs = ( char * ) is
p17
aV* rs = ( char * ) is + ( s - work )
p18
aVreturn dmstor_ctx ( pj_get_default_ctx ( ) , is , rs ) ;
p19
aVchar * * rs
p20
asS'name'
p21
(lp22
S'5591'
p23
aS'5940'
p24
aS'5932'
p25
aS'5579'
p26
aS'5542'
p27
aS'5565'
p28
asS'filepath'
p29
(lp30
V/home/lyl/huawei_project/insertVul/old/PROJ/proj4/src/dmstor.c
p31
ag31
ag31
ag31
aV/home/lyl/huawei_project/insertVul/old/PROJ/proj4/src/dmstor.c
p32
ag31
asS'location'
p33
(lp34
V98:5:2016:2017
p35
aV33:5:665:666
p36
aV34:2:671:687
p37
aV99:2:2073:2102
p38
aV24:1:481:530
p39
aV28:40:583:591
p40
asS'type'
p41
(lp42
VCondition
p43
aVCondition
p44
aVExpressionStatement
p45
aVExpressionStatement
p46
aVReturnStatement
p47
aVParameter
p48
asS'functionId'
p49
(lp50
S'5562'
p51
aS'5562'
p52
aS'5562'
p53
aS'5562'
p54
aS'5531'
p55
aS'5562'
p56
as(dp57
S'var'
p58
(lp59
Vrs
p60
aVrs
p61
aVrs
p62
aVrs
p63
aVrs
p64
ag64
aNaNaNastp65
Rp66
(dp67
b.