cigraph
Graph
p0
(I57
(lp1
(I55
I28
tp2
a(I55
I22
tp3
a(I52
I52
tp4
a(I52
I52
tp5
a(I52
I48
tp6
a(I52
I24
tp7
a(I52
I9
tp8
a(I49
I16
tp9
a(I48
I4
tp10
a(I46
I41
tp11
a(I46
I29
tp12
a(I46
I4
tp13
a(I46
I2
tp14
a(I46
I1
tp15
a(I44
I1
tp16
a(I41
I45
tp17
a(I38
I44
tp18
a(I38
I18
tp19
a(I38
I1
tp20
a(I36
I16
tp21
a(I36
I15
tp22
a(I36
I8
tp23
a(I31
I16
tp24
a(I31
I15
tp25
a(I31
I8
tp26
a(I29
I41
tp27
a(I29
I39
tp28
a(I29
I4
tp29
a(I29
I2
tp30
a(I29
I1
tp31
a(I29
I0
tp32
a(I28
I45
tp33
a(I28
I29
tp34
a(I28
I21
tp35
a(I28
I2
tp36
a(I28
I0
tp37
a(I27
I55
tp38
a(I27
I45
tp39
a(I27
I29
tp40
a(I27
I28
tp41
a(I27
I21
tp42
a(I27
I4
tp43
a(I27
I2
tp44
a(I27
I0
tp45
a(I24
I29
tp46
a(I24
I28
tp47
a(I24
I21
tp48
a(I24
I2
tp49
a(I23
I52
tp50
a(I23
I52
tp51
a(I23
I24
tp52
a(I23
I16
tp53
a(I23
I15
tp54
a(I23
I13
tp55
a(I23
I9
tp56
a(I23
I9
tp57
a(I23
I8
tp58
a(I22
I4
tp59
a(I21
I56
tp60
a(I21
I54
tp61
a(I21
I49
tp62
a(I21
I47
tp63
a(I21
I46
tp64
a(I21
I43
tp65
a(I21
I42
tp66
a(I21
I40
tp67
a(I21
I37
tp68
a(I21
I36
tp69
a(I21
I35
tp70
a(I21
I34
tp71
a(I21
I32
tp72
a(I21
I31
tp73
a(I21
I26
tp74
a(I21
I20
tp75
a(I21
I18
tp76
a(I21
I17
tp77
a(I21
I12
tp78
a(I21
I11
tp79
a(I21
I10
tp80
a(I21
I8
tp81
a(I21
I6
tp82
a(I21
I5
tp83
a(I19
I52
tp84
a(I19
I52
tp85
a(I19
I45
tp86
a(I19
I29
tp87
a(I19
I28
tp88
a(I19
I27
tp89
a(I19
I27
tp90
a(I19
I24
tp91
a(I19
I23
tp92
a(I19
I23
tp93
a(I19
I23
tp94
a(I19
I21
tp95
a(I19
I9
tp96
a(I19
I2
tp97
a(I18
I44
tp98
a(I18
I18
tp99
a(I18
I15
tp100
a(I18
I1
tp101
a(I17
I16
tp102
a(I17
I15
tp103
a(I17
I8
tp104
a(I16
I53
tp105
a(I16
I25
tp106
a(I15
I44
tp107
a(I15
I18
tp108
a(I15
I1
tp109
a(I13
I46
tp110
a(I13
I18
tp111
a(I13
I16
tp112
a(I13
I10
tp113
a(I13
I8
tp114
a(I10
I56
tp115
a(I10
I51
tp116
a(I10
I50
tp117
a(I10
I47
tp118
a(I10
I46
tp119
a(I10
I38
tp120
a(I10
I33
tp121
a(I10
I17
tp122
a(I10
I7
tp123
a(I9
I52
tp124
a(I5
I16
tp125
a(I5
I15
tp126
a(I5
I8
tp127
a(I4
I44
tp128
a(I2
I48
tp129
a(I2
I48
tp130
a(I2
I3
tp131
a(I0
I38
tp132
a(I0
I30
tp133
a(I0
I30
tp134
a(I0
I21
tp135
a(I0
I18
tp136
a(I1
I14
tp137
aI01
(dp138
(dp139
S'code'
p140
(lp141
Vif ( ( tv = proj_strtod ( s , & s ) ) == HUGE_VAL )
p142
aVreturn v ;
p143
aVif ( * s && ( p = strchr ( sym , * s ) ) )
p144
aV++ s
p145
aVif ( sign == '-' )
p146
aVn = 2
p147
aVbreak ;
p148
aVreturn HUGE_VAL ;
p149
aVif ( ( ! FIXREVERTER [ 38 ] && ( n < nl ) )
p150
aVfor ( n = MAX_WORK , s = work , p = ( char * ) is ; isgraph ( * p ) && -- n ; )
p151
aVif ( nl )
p152
aVcase 'R' :
p153
aV)
p154
aVnl = n + 1
p155
aVreturn dmstor_ctx ( pj_get_default_ctx ( ) , is , rs ) ;
p156
aVv += tv * vm [ n ]
p157
aVif ( ( n < nl ) && ! ( 0 ) )
p158
aVn = 4
p159
aVv += tv * vm [ nl ]
p160
aVchar * p , * s , work [ MAX_WORK ] ;
p161
aVcase 'D' :
p162
aVswitch ( * s )
p163
aVsign = '+'
p164
aVn = MAX_WORK , s = work , p = ( char * ) is ;
p165
aV* s = '\u005c0'
p166
aVfprintf ( stderr , "reached bug index 38\u005cn" )
p167
aVcase 'd' :
p168
aVsign = * ( s = work )
p169
aVs ++
p170
aVif ( ! ( isdigit ( * s ) || * s == '.' ) )
p171
aVreturn tv ;
p172
aVn = 0
p173
aVbreak ;
p174
aVpj_ctx_set_errno ( ctx , - 16 )
p175
aVcase '"' :
p176
aVpj_ctx_set_errno ( ctx , - 16 )
p177
aVn = 1
p178
aVreturn HUGE_VAL ;
p179
aVv = tv
p180
aVbreak ;
p181
aVcase '\u005c'' :
p182
aVif ( rs )
p183
aVdefault :
p184
aVcase 'r' :
p185
aVv = - v
p186
aV* rs = ( char * ) is + ( s - work )
p187
aVfor ( v = 0. , nl = 0 ; nl < 3 ; nl = n + 1 )
p188
aVskip :
p189
aVsign = ( p - sym ) >= 4 ? '-' : '+'
p190
aVif ( FIXREVERTER [ 38 ] )
p191
aVgoto skip ;
p192
aV++ s
p193
aV* s ++ = * p ++
p194
aVfprintf ( stderr , "triggered bug index 38\u005cn" )
p195
aVbreak ;
p196
aVif ( sign == '+' || sign == '-' )
p197
aVcontinue ;
p198
asS'name'
p199
(lp200
S'5792'
p201
aS'5576'
p202
aS'5622'
p203
aS'5606'
p204
aS'5600'
p205
aS'5767'
p206
aS'5766'
p207
aS'5749'
p208
aS'5669'
p209
aS'5888'
p210
aS'5762'
p211
aS'5764'
p212
aS'5668'
p213
aS'5826'
p214
aS'5542'
p215
aS'5645'
p216
aS'5706'
p217
aS'5721'
p218
aS'5727'
p219
aS'5949'
p220
aS'5784'
p221
aS'5785'
p222
aS'5845'
p223
aS'5901'
p224
aS'5869'
p225
aS'5688'
p226
aS'5783'
p227
aS'5861'
p228
aS'5849'
p229
aS'5809'
p230
aS'5790'
p231
aS'5779'
p232
aS'5778'
p233
aS'5751'
p234
aS'5771'
p235
aS'5657'
p236
aS'5773'
p237
aS'5655'
p238
aS'5739'
p239
aS'5808'
p240
aS'5777'
p241
aS'5591'
p242
aS'5735'
p243
aS'5765'
p244
aS'5594'
p245
aS'5579'
p246
aS'5831'
p247
aS'5725'
p248
aS'5610'
p249
aS'5714'
p250
aS'5737'
p251
aS'5743'
p252
aS'5876'
p253
aS'5697'
p254
aS'5772'
p255
aS'5853'
p256
aS'5720'
p257
asS'filepath'
p258
(lp259
V/home/lyl/huawei_project/insertVul/old/PROJ/proj4/src/dmstor.c
p260
ag260
ag260
ag260
ag260
ag260
ag260
ag260
ag260
ag260
ag260
ag260
ag260
ag260
aV/home/lyl/huawei_project/insertVul/old/PROJ/proj4/src/dmstor.c
p261
ag260
ag260
ag260
ag260
ag260
ag260
ag260
ag260
ag260
ag260
ag260
ag260
ag260
ag260
ag260
ag260
ag260
ag260
ag260
ag260
ag260
ag260
ag260
ag260
ag260
ag260
ag260
ag260
ag260
ag260
ag260
ag260
ag260
ag260
ag260
ag260
ag260
ag260
ag260
ag260
ag260
ag260
asS'location'
p262
(lp263
V47:6:1153:1189
p264
aV100:1:2105:2113
p265
aV92:5:1905:1931
p266
aV94:2:1975:1978
p267
aV96:5:1988:1998
p268
aV55:3:1306:1311
p269
aV55:10:1313:1318
p270
aV59:4:1393:1408
p271
aV77:2:1698:1699
p272
aV37:46:804:821
p273
aV57:7:1349:1350
p274
aV56:12:1332:1340
p275
aV81:2:1761:1761
p276
aV45:32:1090:1099
p277
aV24:1:481:530
p278
aV88:2:1852:1867
p279
aV72:8:1564:1580
p280
aV66:8:1488:1493
p281
aV65:3:1462:1478
p282
aV30:1:615:642
p283
aV50:2:1224:1232
p284
aV49:10:1216:1217
p285
aV44:6:1046:1056
p286
aV37:6:764:802
p287
aV39:1:843:852
p288
aV75:6:1649:1690
p289
aV50:12:1234:1242
p290
aV42:1:982:1000
p291
aV43:33:1035:1038
p292
aV46:6:1111:1137
p293
aV48:3:1195:1204
p294
aV51:3:1247:1252
p295
aV51:10:1254:1259
p296
aV58:4:1359:1387
p297
aV54:2:1293:1301
p298
aV82:3:1768:1796
p299
aV53:3:1277:1282
p300
aV83:3:1801:1816
p301
aV62:3:1426:1432
p302
aV46:35:1140:1145
p303
aV52:2:1263:1272
p304
aV98:5:2016:2017
p305
aV64:2:1450:1457
p306
aV56:2:1322:1330
p307
aV97:2:2003:2009
p308
aV99:2:2073:2102
p309
aV45:23:1081:1086
p310
aV66:2:1482:1486
p311
aV93:2:1938:1971
p312
aV71:7:1537:1551
p313
aV63:3:1437:1446
p314
aV61:3:1418:1421
p315
aV38:2:829:840
p316
aV73:6:1589:1632
p317
aV53:10:1284:1289
p318
aV43:5:1007:1032
p319
aV67:3:1498:1506
p320
asS'type'
p321
(lp322
VCondition
p323
aVReturnStatement
p324
aVCondition
p325
aVExpressionStatement
p326
aVCondition
p327
aVExpressionStatement
p328
aVBreakStatement
p329
aVReturnStatement
p330
aS'Statement'
p331
aVCondition
p332
aVCondition
p333
aVLabel
p334
ag331
aVAssignmentExpr
p335
aVReturnStatement
p336
aVExpressionStatement
p337
aVCondition
p338
aVExpressionStatement
p339
aVExpressionStatement
p340
aVIdentifierDeclStatement
p341
aVLabel
p342
aVCondition
p343
aVExpressionStatement
p344
aVForInit
p345
aVExpressionStatement
p346
aVExpressionStatement
p347
aVLabel
p348
aVExpressionStatement
p349
aVExpressionStatement
p350
aVCondition
p351
aVReturnStatement
p352
aVExpressionStatement
p353
aVBreakStatement
p354
aVExpressionStatement
p355
aVLabel
p356
aVExpressionStatement
p357
aVExpressionStatement
p358
aVReturnStatement
p359
aVExpressionStatement
p360
aVBreakStatement
p361
aVLabel
p362
aVCondition
p363
aVLabel
p364
aVLabel
p365
aVExpressionStatement
p366
aVExpressionStatement
p367
aVCondition
p368
aVLabel
p369
aVExpressionStatement
p370
aVCondition
p371
aVGotoStatement
p372
aVExpressionStatement
p373
aVExpressionStatement
p374
aVExpressionStatement
p375
aVBreakStatement
p376
aVCondition
p377
aVContinueStatement
p378
asS'functionId'
p379
(lp380
S'5562'
p381
aS'5562'
p382
aS'5562'
p383
aS'5562'
p384
aS'5562'
p385
aS'5562'
p386
aS'5562'
p387
aS'5562'
p388
aS'5562'
p389
aS'5562'
p390
aS'5562'
p391
aS'5562'
p392
aS'5562'
p393
aS'5562'
p394
aS'5531'
p395
aS'5562'
p396
aS'5562'
p397
aS'5562'
p398
aS'5562'
p399
aS'5562'
p400
aS'5562'
p401
aS'5562'
p402
aS'5562'
p403
aS'5562'
p404
aS'5562'
p405
aS'5562'
p406
aS'5562'
p407
aS'5562'
p408
aS'5562'
p409
aS'5562'
p410
aS'5562'
p411
aS'5562'
p412
aS'5562'
p413
aS'5562'
p414
aS'5562'
p415
aS'5562'
p416
aS'5562'
p417
aS'5562'
p418
aS'5562'
p419
aS'5562'
p420
aS'5562'
p421
aS'5562'
p422
aS'5562'
p423
aS'5562'
p424
aS'5562'
p425
aS'5562'
p426
aS'5562'
p427
aS'5562'
p428
aS'5562'
p429
aS'5562'
p430
aS'5562'
p431
aS'5562'
p432
aS'5562'
p433
aS'5562'
p434
aS'5562'
p435
aS'5562'
p436
aS'5562'
p437
as(dp438
S'var'
p439
(lp440
NaNaVp
p441
aVs
p442
ag441
ag442
ag441
aNaVsign
p443
aNaNaNaNaNaVv
p444
aNag444
ag444
ag444
aVn
p445
ag445
ag445
ag445
ag445
ag445
aNaNaNaNaNaNag442
ag442
ag442
ag442
ag442
aVsign
p446
ag442
ag442
ag442
ag442
aVsign
p447
ag442
ag442
aV s
p448
ag442
aV s
p449
aV s
p450
ag441
ag442
ag442
ag445
ag445
ag445
ag445
ag441
ag445
aVsign
p451
aNaNaNaNaNaNaNaNaNaNaNaNaNaNaNaNaNaNaNaNaNaNaNaNag442
ag441
aVwork
p452
ag442
ag442
ag442
aVwork
p453
ag442
ag442
ag441
aVwork
p454
ag442
ag441
ag441
ag444
ag444
ag444
ag444
ag445
ag445
ag445
aNaNag444
ag444
ag444
aVnl
p455
aVnl
p456
aVnl
p457
aVnl
p458
aVnl
p459
aNaNaNaNaNaNaNaNaNaNag445
ag445
ag445
aNag441
aNaNaVtv
p460
aNaVtv
p461
aNaVtv
p462
aNastp463
Rp464
(dp465
b.