cigraph
Graph
p0
(I59
(lp1
(I56
I29
tp2
a(I56
I23
tp3
a(I54
I46
tp4
a(I54
I42
tp5
a(I53
I53
tp6
a(I53
I53
tp7
a(I53
I49
tp8
a(I53
I28
tp9
a(I53
I9
tp10
a(I50
I17
tp11
a(I49
I4
tp12
a(I47
I48
tp13
a(I47
I42
tp14
a(I47
I4
tp15
a(I47
I2
tp16
a(I47
I0
tp17
a(I45
I48
tp18
a(I42
I46
tp19
a(I39
I48
tp20
a(I39
I45
tp21
a(I39
I19
tp22
a(I37
I17
tp23
a(I37
I10
tp24
a(I37
I8
tp25
a(I32
I17
tp26
a(I32
I10
tp27
a(I32
I8
tp28
a(I29
I46
tp29
a(I29
I22
tp30
a(I29
I2
tp31
a(I29
I1
tp32
a(I29
I0
tp33
a(I28
I29
tp34
a(I28
I22
tp35
a(I28
I2
tp36
a(I28
I0
tp37
a(I25
I57
tp38
a(I25
I56
tp39
a(I25
I4
tp40
a(I24
I53
tp41
a(I24
I53
tp42
a(I24
I28
tp43
a(I24
I17
tp44
a(I24
I14
tp45
a(I24
I10
tp46
a(I24
I9
tp47
a(I24
I9
tp48
a(I24
I8
tp49
a(I23
I4
tp50
a(I22
I58
tp51
a(I22
I55
tp52
a(I22
I50
tp53
a(I22
I47
tp54
a(I22
I44
tp55
a(I22
I43
tp56
a(I22
I41
tp57
a(I22
I38
tp58
a(I22
I37
tp59
a(I22
I36
tp60
a(I22
I35
tp61
a(I22
I33
tp62
a(I22
I32
tp63
a(I22
I27
tp64
a(I22
I21
tp65
a(I22
I20
tp66
a(I22
I19
tp67
a(I22
I18
tp68
a(I22
I16
tp69
a(I22
I12
tp70
a(I22
I11
tp71
a(I22
I8
tp72
a(I22
I6
tp73
a(I22
I5
tp74
a(I19
I48
tp75
a(I19
I45
tp76
a(I19
I19
tp77
a(I19
I10
tp78
a(I18
I17
tp79
a(I18
I10
tp80
a(I18
I8
tp81
a(I17
I30
tp82
a(I17
I26
tp83
a(I16
I58
tp84
a(I16
I52
tp85
a(I16
I51
tp86
a(I16
I47
tp87
a(I16
I39
tp88
a(I16
I34
tp89
a(I16
I20
tp90
a(I16
I18
tp91
a(I16
I7
tp92
a(I14
I47
tp93
a(I14
I19
tp94
a(I14
I17
tp95
a(I14
I16
tp96
a(I14
I8
tp97
a(I13
I54
tp98
a(I13
I46
tp99
a(I13
I25
tp100
a(I13
I24
tp101
a(I10
I48
tp102
a(I10
I45
tp103
a(I10
I19
tp104
a(I9
I53
tp105
a(I5
I17
tp106
a(I5
I10
tp107
a(I5
I8
tp108
a(I4
I45
tp109
a(I2
I49
tp110
a(I2
I49
tp111
a(I2
I3
tp112
a(I1
I39
tp113
a(I1
I31
tp114
a(I1
I31
tp115
a(I1
I22
tp116
a(I1
I19
tp117
a(I0
I48
tp118
a(I0
I42
tp119
a(I0
I40
tp120
a(I0
I4
tp121
a(I0
I2
tp122
a(I0
I1
tp123
a(I48
I15
tp124
aI01
(dp125
(dp126
S'code'
p127
(lp128
Vif ( ! ( isdigit ( * s ) || * s == '.' ) )
p129
aVif ( ( tv = proj_strtod ( s , & s ) ) == HUGE_VAL )
p130
aVif ( * s && ( p = strchr ( sym , * s ) ) )
p131
aV++ s
p132
aVif ( sign == '-' )
p133
aVn = 2
p134
aVbreak ;
p135
aVreturn HUGE_VAL ;
p136
aVif ( ( ! FIXREVERTER [ 38 ] && ( n < nl ) )
p137
aVfor ( n = MAX_WORK , s = work , p = ( char * ) is ; isgraph ( * p ) && -- n ; )
p138
aVv += tv * vm [ n ]
p139
aVcase 'R' :
p140
aV)
p141
aVconst char * is
p142
aVnl = n + 1
p143
aVreturn dmstor_ctx ( pj_get_default_ctx ( ) , is , rs ) ;
p144
aVif ( nl )
p145
aVif ( ( n < nl ) && ! ( 0 ) )
p146
aVn = 4
p147
aVv += tv * vm [ nl ]
p148
aVskip :
p149
aVcase 'D' :
p150
aVswitch ( * s )
p151
aVsign = '+'
p152
aVn = MAX_WORK , s = work , p = ( char * ) is ;
p153
aVwhile ( isspace ( sign = * is ) )
p154
aVfprintf ( stderr , "reached bug index 38\u005cn" )
p155
aVcase 'd' :
p156
aV* s = '\u005c0'
p157
aVs ++
p158
aVfprintf ( stderr , "triggered bug index 38\u005cn" )
p159
aVreturn tv ;
p160
aVn = 0
p161
aVbreak ;
p162
aVpj_ctx_set_errno ( ctx , - 16 )
p163
aVcase '"' :
p164
aVpj_ctx_set_errno ( ctx , - 16 )
p165
aVn = 1
p166
aVreturn HUGE_VAL ;
p167
aVv = tv
p168
aVbreak ;
p169
aVcase '\u005c'' :
p170
aVif ( rs )
p171
aVdefault :
p172
aVcase 'r' :
p173
aVv = - v
p174
aV* rs = ( char * ) is + ( s - work )
p175
aVfor ( v = 0. , nl = 0 ; nl < 3 ; nl = n + 1 )
p176
aVreturn v ;
p177
aVsign = ( p - sym ) >= 4 ? '-' : '+'
p178
aVif ( FIXREVERTER [ 38 ] )
p179
aVgoto skip ;
p180
aV++ s
p181
aV* s ++ = * p ++
p182
aV* rs = ( char * ) is
p183
aVbreak ;
p184
aVif ( sign == '+' || sign == '-' )
p185
aV++ is
p186
aVcontinue ;
p187
asS'name'
p188
(lp189
S'5809'
p190
aS'5792'
p191
aS'5622'
p192
aS'5606'
p193
aS'5600'
p194
aS'5767'
p195
aS'5766'
p196
aS'5749'
p197
aS'5669'
p198
aS'5888'
p199
aS'5645'
p200
aS'5764'
p201
aS'5668'
p202
aS'5568'
p203
aS'5826'
p204
aS'5542'
p205
aS'5762'
p206
aS'5706'
p207
aS'5721'
p208
aS'5727'
p209
aS'5725'
p210
aS'5784'
p211
aS'5785'
p212
aS'5845'
p213
aS'5901'
p214
aS'5920'
p215
aS'5688'
p216
aS'5783'
p217
aS'5869'
p218
aS'5849'
p219
aS'5697'
p220
aS'5790'
p221
aS'5779'
p222
aS'5778'
p223
aS'5751'
p224
aS'5771'
p225
aS'5657'
p226
aS'5773'
p227
aS'5655'
p228
aS'5739'
p229
aS'5808'
p230
aS'5777'
p231
aS'5591'
p232
aS'5735'
p233
aS'5765'
p234
aS'5594'
p235
aS'5579'
p236
aS'5831'
p237
aS'5576'
p238
aS'5610'
p239
aS'5714'
p240
aS'5737'
p241
aS'5743'
p242
aS'5876'
p243
aS'5932'
p244
aS'5772'
p245
aS'5853'
p246
aS'5916'
p247
aS'5720'
p248
asS'filepath'
p249
(lp250
V/home/lyl/huawei_project/insertVul/old/PROJ/proj4/src/dmstor.c
p251
ag251
ag251
ag251
ag251
ag251
ag251
ag251
ag251
ag251
ag251
ag251
ag251
ag251
ag251
aV/home/lyl/huawei_project/insertVul/old/PROJ/proj4/src/dmstor.c
p252
ag251
ag251
ag251
ag251
ag251
ag251
ag251
ag251
ag251
ag251
ag251
ag251
ag251
ag251
ag251
ag251
ag251
ag251
ag251
ag251
ag251
ag251
ag251
ag251
ag251
ag251
ag251
ag251
ag251
ag251
ag251
ag251
ag251
ag251
ag251
ag251
ag251
ag251
ag251
ag251
ag251
ag251
ag251
asS'location'
p253
(lp254
V46:6:1111:1137
p255
aV47:6:1153:1189
p256
aV92:5:1905:1931
p257
aV94:2:1975:1978
p258
aV96:5:1988:1998
p259
aV55:3:1306:1311
p260
aV55:10:1313:1318
p261
aV59:4:1393:1408
p262
aV77:2:1698:1699
p263
aV37:46:804:821
p264
aV88:2:1852:1867
p265
aV56:12:1332:1340
p266
aV81:2:1761:1761
p267
aV28:24:567:580
p268
aV45:32:1090:1099
p269
aV24:1:481:530
p270
aV57:7:1349:1350
p271
aV72:8:1564:1580
p272
aV66:8:1488:1493
p273
aV65:3:1462:1478
p274
aV66:2:1482:1486
p275
aV50:2:1224:1232
p276
aV49:10:1216:1217
p277
aV44:6:1046:1056
p278
aV37:6:764:802
p279
aV36:8:731:749
p280
aV75:6:1649:1690
p281
aV50:12:1234:1242
p282
aV39:1:843:852
p283
aV43:33:1035:1038
p284
aV73:6:1589:1632
p285
aV48:3:1195:1204
p286
aV51:3:1247:1252
p287
aV51:10:1254:1259
p288
aV58:4:1359:1387
p289
aV54:2:1293:1301
p290
aV82:3:1768:1796
p291
aV53:3:1277:1282
p292
aV83:3:1801:1816
p293
aV62:3:1426:1432
p294
aV46:35:1140:1145
p295
aV52:2:1263:1272
p296
aV98:5:2016:2017
p297
aV64:2:1450:1457
p298
aV56:2:1322:1330
p299
aV97:2:2003:2009
p300
aV99:2:2073:2102
p301
aV45:23:1081:1086
p302
aV100:1:2105:2113
p303
aV93:2:1938:1971
p304
aV71:7:1537:1551
p305
aV63:3:1437:1446
p306
aV61:3:1418:1421
p307
aV38:2:829:840
p308
aV34:2:671:687
p309
aV53:10:1284:1289
p310
aV43:5:1007:1032
p311
aV36:29:752:756
p312
aV67:3:1498:1506
p313
asS'type'
p314
(lp315
VCondition
p316
aVCondition
p317
aVCondition
p318
aVExpressionStatement
p319
aVCondition
p320
aVExpressionStatement
p321
aVBreakStatement
p322
aVReturnStatement
p323
aS'Statement'
p324
aVCondition
p325
aVExpressionStatement
p326
aVLabel
p327
ag324
aVParameter
p328
aVAssignmentExpr
p329
aVReturnStatement
p330
aVCondition
p331
aVCondition
p332
aVExpressionStatement
p333
aVExpressionStatement
p334
aVLabel
p335
aVLabel
p336
aVCondition
p337
aVExpressionStatement
p338
aVForInit
p339
aVCondition
p340
aVExpressionStatement
p341
aVLabel
p342
aVExpressionStatement
p343
aVExpressionStatement
p344
aVExpressionStatement
p345
aVReturnStatement
p346
aVExpressionStatement
p347
aVBreakStatement
p348
aVExpressionStatement
p349
aVLabel
p350
aVExpressionStatement
p351
aVExpressionStatement
p352
aVReturnStatement
p353
aVExpressionStatement
p354
aVBreakStatement
p355
aVLabel
p356
aVCondition
p357
aVLabel
p358
aVLabel
p359
aVExpressionStatement
p360
aVExpressionStatement
p361
aVCondition
p362
aVReturnStatement
p363
aVExpressionStatement
p364
aVCondition
p365
aVGotoStatement
p366
aVExpressionStatement
p367
aVExpressionStatement
p368
aVExpressionStatement
p369
aVBreakStatement
p370
aVCondition
p371
aVExpressionStatement
p372
aVContinueStatement
p373
asS'functionId'
p374
(lp375
S'5562'
p376
aS'5562'
p377
aS'5562'
p378
aS'5562'
p379
aS'5562'
p380
aS'5562'
p381
aS'5562'
p382
aS'5562'
p383
aS'5562'
p384
aS'5562'
p385
aS'5562'
p386
aS'5562'
p387
aS'5562'
p388
aS'5562'
p389
aS'5562'
p390
aS'5531'
p391
aS'5562'
p392
aS'5562'
p393
aS'5562'
p394
aS'5562'
p395
aS'5562'
p396
aS'5562'
p397
aS'5562'
p398
aS'5562'
p399
aS'5562'
p400
aS'5562'
p401
aS'5562'
p402
aS'5562'
p403
aS'5562'
p404
aS'5562'
p405
aS'5562'
p406
aS'5562'
p407
aS'5562'
p408
aS'5562'
p409
aS'5562'
p410
aS'5562'
p411
aS'5562'
p412
aS'5562'
p413
aS'5562'
p414
aS'5562'
p415
aS'5562'
p416
aS'5562'
p417
aS'5562'
p418
aS'5562'
p419
aS'5562'
p420
aS'5562'
p421
aS'5562'
p422
aS'5562'
p423
aS'5562'
p424
aS'5562'
p425
aS'5562'
p426
aS'5562'
p427
aS'5562'
p428
aS'5562'
p429
aS'5562'
p430
aS'5562'
p431
aS'5562'
p432
aS'5562'
p433
aS'5562'
p434
as(dp435
S'var'
p436
(lp437
NaNaVrs
p438
ag438
aVs
p439
aVp
p440
ag440
ag439
ag440
aNaVsign
p441
aNaNaNaNaNaVv
p442
aNag442
ag442
ag442
aVn
p443
ag443
ag443
ag443
ag443
ag443
ag439
ag439
ag439
ag439
ag439
ag439
aV s
p444
aV s
p445
aV s
p446
aNaVsign
p447
ag447
ag440
ag439
ag439
ag443
ag443
ag443
ag440
ag443
ag443
aVsign
p448
aNaNaNaNaNaNaNaNaNaNaNaNaNaNaNaNaNaNaNaNaNaNaNaNag442
ag442
ag442
ag442
ag443
ag443
ag443
aNaNaNaNaNaNaNaNaNaNaNaVnl
p449
aVnl
p450
aVnl
p451
aVnl
p452
aVnl
p453
aVis
p454
aVis
p455
aVis
p456
aVis
p457
ag442
ag442
ag442
aNag443
ag443
ag443
aNaNag440
aNaVtv
p458
aNaVtv
p459
aNaVtv
p460
aNaNaNaNaNaNaNastp461
Rp462
(dp463
b.