cigraph
Graph
p0
(I18
(lp1
(I0
I1
tp2
a(I0
I2
tp3
a(I1
I4
tp4
a(I1
I11
tp5
a(I1
I12
tp6
a(I1
I12
tp7
a(I1
I13
tp8
a(I1
I13
tp9
a(I2
I10
tp10
a(I4
I5
tp11
a(I5
I3
tp12
a(I5
I8
tp13
a(I6
I5
tp14
a(I7
I3
tp15
a(I7
I8
tp16
a(I8
I3
tp17
a(I9
I3
tp18
a(I9
I7
tp19
a(I9
I8
tp20
a(I9
I10
tp21
a(I10
I7
tp22
a(I11
I3
tp23
a(I11
I7
tp24
a(I11
I8
tp25
a(I12
I11
tp26
a(I12
I12
tp27
a(I12
I12
tp28
a(I12
I13
tp29
a(I13
I12
tp30
a(I14
I1
tp31
a(I14
I1
tp32
a(I14
I1
tp33
a(I14
I3
tp34
a(I14
I7
tp35
a(I14
I8
tp36
a(I14
I9
tp37
a(I14
I9
tp38
a(I14
I11
tp39
a(I14
I12
tp40
a(I14
I12
tp41
a(I14
I13
tp42
a(I15
I0
tp43
a(I15
I1
tp44
a(I15
I2
tp45
a(I15
I5
tp46
a(I15
I6
tp47
a(I15
I9
tp48
a(I15
I10
tp49
a(I15
I11
tp50
a(I15
I13
tp51
a(I15
I14
tp52
a(I15
I16
tp53
a(I15
I17
tp54
a(I16
I6
tp55
a(I17
I1
tp56
a(I17
I2
tp57
a(I17
I4
tp58
a(I17
I5
tp59
a(I17
I6
tp60
a(I17
I9
tp61
a(I17
I10
tp62
a(I17
I13
tp63
aI01
(dp64
(dp65
S'code'
p66
(lp67
Vconst char * is
p68
aVn = MAX_WORK , s = work , p = ( char * ) is ;
p69
aVwhile ( isspace ( sign = * is ) )
p70
aVif ( * s && ( p = strchr ( sym , * s ) ) )
p71
aVnl = n + 1
p72
aVfor ( v = 0. , nl = 0 ; nl < 3 ; nl = n + 1 )
p73
aVv = 0. , nl = 0 ;
p74
aVs ++
p75
aVif ( ! ( isdigit ( * s ) || * s == '.' ) )
p76
aVsign = * ( s = work )
p77
aVif ( sign == '+' || sign == '-' )
p78
aV* s = '\u005c0'
p79
aV* s ++ = * p ++
p80
aVfor ( n = MAX_WORK , s = work , p = ( char * ) is ; isgraph ( * p ) && -- n ; )
p81
aVchar * p , * s , work [ MAX_WORK ] ;
p82
aVdmstor_ctx (projCtx ctx , const char * is , char * * rs)
p83
aVdouble v , tv ;
p84
aVint sign , n , nl ;
p85
asS'name'
p86
(lp87
S'5568'
p88
aS'5901'
p89
aS'5920'
p90
aS'5622'
p91
aS'5826'
p92
aS'5831'
p93
aS'5835'
p94
aS'5849'
p95
aS'5809'
p96
aS'5861'
p97
aS'5853'
p98
aS'5869'
p99
aS'5876'
p100
aS'5888'
p101
aS'5949'
p102
aS'5562'
p103
aS'5942'
p104
aS'5960'
p105
asS'filepath'
p106
(lp107
V/home/lyl/huawei_project/insertVul/old/PROJ/proj4/src/dmstor.c
p108
ag108
ag108
ag108
ag108
ag108
ag108
ag108
ag108
ag108
ag108
ag108
ag108
ag108
ag108
ag108
ag108
ag108
asS'location'
p109
(lp110
V28:24:567:580
p111
aV37:6:764:802
p112
aV36:8:731:749
p113
aV92:5:1905:1931
p114
aV45:32:1090:1099
p115
aV45:23:1081:1086
p116
aV45:6:1064:1079
p117
aV43:33:1035:1038
p118
aV46:6:1111:1137
p119
aV42:1:982:1000
p120
aV43:5:1007:1032
p121
aV39:1:843:852
p122
aV38:2:829:840
p123
aV37:46:804:821
p124
aV30:1:615:642
p125
aV27:1:536:2115
p126
aV31:1:645:657
p127
aV29:1:597:612
p128
asS'type'
p129
(lp130
VParameter
p131
aVForInit
p132
aVCondition
p133
aVCondition
p134
aVAssignmentExpr
p135
aVCondition
p136
aVForInit
p137
aVExpressionStatement
p138
aVCondition
p139
aVExpressionStatement
p140
aVCondition
p141
aVExpressionStatement
p142
aVExpressionStatement
p143
aVCondition
p144
aVIdentifierDeclStatement
p145
aVFunction
p146
aVIdentifierDeclStatement
p147
aVIdentifierDeclStatement
p148
asS'functionId'
p149
(lp150
S'5562'
p151
aS'5562'
p152
aS'5562'
p153
aS'5562'
p154
aS'5562'
p155
aS'5562'
p156
aS'5562'
p157
aS'5562'
p158
aS'5562'
p159
aS'5562'
p160
aS'5562'
p161
aS'5562'
p162
aS'5562'
p163
aS'5562'
p164
aS'5562'
p165
aS'5562'
p166
aS'5562'
p167
aS'5562'
p168
as(dp169
S'var'
p170
(lp171
Vis
p172
aVis
p173
aVn
p174
aVs
p175
aVp
p176
ag175
ag174
ag176
aVsign
p177
aVnl
p178
aNaNaVnl
p179
ag175
ag175
aNag175
ag175
ag175
aVsign
p180
aNaV s
p181
ag175
aV s
p182
ag175
ag176
ag175
ag176
aNag176
ag175
aVwork
p183
ag176
ag175
ag175
ag175
aVwork
p184
ag175
ag176
ag175
ag176
aNaNaNaNaNaNaNaNaNaNaNaNaVv
p185
ag174
aVsign
p186
aVnl
p187
ag187
ag187
ag186
ag186
ag174
astp188
Rp189
(dp190
b.