cigraph
Graph
p0
(I27
(lp1
(I0
I1
tp2
a(I0
I2
tp3
a(I1
I4
tp4
a(I1
I8
tp5
a(I1
I17
tp6
a(I1
I18
tp7
a(I1
I18
tp8
a(I1
I19
tp9
a(I1
I19
tp10
a(I2
I16
tp11
a(I3
I4
tp12
a(I4
I21
tp13
a(I5
I4
tp14
a(I6
I4
tp15
a(I7
I14
tp16
a(I8
I4
tp17
a(I8
I9
tp18
a(I8
I10
tp19
a(I9
I10
tp20
a(I9
I23
tp21
a(I10
I13
tp22
a(I11
I4
tp23
a(I11
I9
tp24
a(I11
I10
tp25
a(I12
I7
tp26
a(I12
I13
tp27
a(I12
I14
tp28
a(I13
I7
tp29
a(I14
I3
tp30
a(I14
I5
tp31
a(I14
I6
tp32
a(I14
I9
tp33
a(I14
I10
tp34
a(I14
I22
tp35
a(I14
I23
tp36
a(I15
I7
tp37
a(I15
I12
tp38
a(I15
I13
tp39
a(I15
I14
tp40
a(I15
I16
tp41
a(I16
I12
tp42
a(I17
I12
tp43
a(I17
I13
tp44
a(I17
I14
tp45
a(I18
I17
tp46
a(I18
I18
tp47
a(I18
I18
tp48
a(I18
I19
tp49
a(I19
I18
tp50
a(I20
I1
tp51
a(I20
I1
tp52
a(I20
I1
tp53
a(I20
I12
tp54
a(I20
I13
tp55
a(I20
I14
tp56
a(I20
I15
tp57
a(I20
I15
tp58
a(I20
I17
tp59
a(I20
I18
tp60
a(I20
I18
tp61
a(I20
I19
tp62
a(I22
I4
tp63
a(I23
I4
tp64
a(I24
I0
tp65
a(I24
I1
tp66
a(I24
I2
tp67
a(I24
I10
tp68
a(I24
I11
tp69
a(I24
I15
tp70
a(I24
I16
tp71
a(I24
I17
tp72
a(I24
I19
tp73
a(I24
I20
tp74
a(I24
I25
tp75
a(I24
I26
tp76
a(I25
I7
tp77
a(I25
I11
tp78
a(I26
I1
tp79
a(I26
I2
tp80
a(I26
I3
tp81
a(I26
I4
tp82
a(I26
I4
tp83
a(I26
I5
tp84
a(I26
I6
tp85
a(I26
I8
tp86
a(I26
I9
tp87
a(I26
I10
tp88
a(I26
I11
tp89
a(I26
I15
tp90
a(I26
I16
tp91
a(I26
I19
tp92
a(I26
I23
tp93
aI01
(dp94
(dp95
S'code'
p96
(lp97
Vconst char * is
p98
aVn = MAX_WORK , s = work , p = ( char * ) is ;
p99
aVwhile ( isspace ( sign = * is ) )
p100
aVn = 2
p101
aVif ( ( n < nl ) && ! ( 0 ) )
p102
aVn = 1
p103
aVn = 0
p104
aVif ( ( tv = proj_strtod ( s , & s ) ) == HUGE_VAL )
p105
aVnl = n + 1
p106
aVif ( nl )
p107
aVfor ( v = 0. , nl = 0 ; nl < 3 ; nl = n + 1 )
p108
aVv = 0. , nl = 0 ;
p109
aVs ++
p110
aVif ( ! ( isdigit ( * s ) || * s == '.' ) )
p111
aVswitch ( * s )
p112
aVsign = * ( s = work )
p113
aVif ( sign == '+' || sign == '-' )
p114
aV* s = '\u005c0'
p115
aV* s ++ = * p ++
p116
aVfor ( n = MAX_WORK , s = work , p = ( char * ) is ; isgraph ( * p ) && -- n ; )
p117
aVchar * p , * s , work [ MAX_WORK ] ;
p118
aVfprintf ( stderr , "triggered bug index 38\u005cn" )
p119
aVif ( FIXREVERTER [ 38 ] )
p120
aVn = 4
p121
aVdmstor_ctx (projCtx ctx , const char * is , char * * rs)
p122
aVdouble v , tv ;
p123
aVint sign , n , nl ;
p124
asS'name'
p125
(lp126
S'5568'
p127
aS'5901'
p128
aS'5920'
p129
aS'5767'
p130
aS'5706'
p131
aS'5773'
p132
aS'5779'
p133
aS'5792'
p134
aS'5826'
p135
aS'5762'
p136
aS'5831'
p137
aS'5835'
p138
aS'5849'
p139
aS'5809'
p140
aS'5785'
p141
aS'5861'
p142
aS'5853'
p143
aS'5869'
p144
aS'5876'
p145
aS'5888'
p146
aS'5949'
p147
aS'5697'
p148
aS'5714'
p149
aS'5721'
p150
aS'5562'
p151
aS'5942'
p152
aS'5960'
p153
asS'filepath'
p154
(lp155
V/home/lyl/huawei_project/insertVul/old/PROJ/proj4/src/dmstor.c
p156
ag156
ag156
ag156
ag156
ag156
ag156
ag156
ag156
ag156
ag156
ag156
ag156
ag156
ag156
ag156
ag156
ag156
ag156
ag156
ag156
ag156
ag156
ag156
ag156
ag156
ag156
asS'location'
p157
(lp158
V28:24:567:580
p159
aV37:6:764:802
p160
aV36:8:731:749
p161
aV55:3:1306:1311
p162
aV72:8:1564:1580
p163
aV53:3:1277:1282
p164
aV51:3:1247:1252
p165
aV47:6:1153:1189
p166
aV45:32:1090:1099
p167
aV57:7:1349:1350
p168
aV45:23:1081:1086
p169
aV45:6:1064:1079
p170
aV43:33:1035:1038
p171
aV46:6:1111:1137
p172
aV49:10:1216:1217
p173
aV42:1:982:1000
p174
aV43:5:1007:1032
p175
aV39:1:843:852
p176
aV38:2:829:840
p177
aV37:46:804:821
p178
aV30:1:615:642
p179
aV73:6:1589:1632
p180
aV71:7:1537:1551
p181
aV66:8:1488:1493
p182
aV27:1:536:2115
p183
aV31:1:645:657
p184
aV29:1:597:612
p185
asS'type'
p186
(lp187
VParameter
p188
aVForInit
p189
aVCondition
p190
aVExpressionStatement
p191
aVCondition
p192
aVExpressionStatement
p193
aVExpressionStatement
p194
aVCondition
p195
aVAssignmentExpr
p196
aVCondition
p197
aVCondition
p198
aVForInit
p199
aVExpressionStatement
p200
aVCondition
p201
aVCondition
p202
aVExpressionStatement
p203
aVCondition
p204
aVExpressionStatement
p205
aVExpressionStatement
p206
aVCondition
p207
aVIdentifierDeclStatement
p208
aVExpressionStatement
p209
aVCondition
p210
aVExpressionStatement
p211
aVFunction
p212
aVIdentifierDeclStatement
p213
aVIdentifierDeclStatement
p214
asS'functionId'
p215
(lp216
S'5562'
p217
aS'5562'
p218
aS'5562'
p219
aS'5562'
p220
aS'5562'
p221
aS'5562'
p222
aS'5562'
p223
aS'5562'
p224
aS'5562'
p225
aS'5562'
p226
aS'5562'
p227
aS'5562'
p228
aS'5562'
p229
aS'5562'
p230
aS'5562'
p231
aS'5562'
p232
aS'5562'
p233
aS'5562'
p234
aS'5562'
p235
aS'5562'
p236
aS'5562'
p237
aS'5562'
p238
aS'5562'
p239
aS'5562'
p240
aS'5562'
p241
aS'5562'
p242
aS'5562'
p243
as(dp244
S'var'
p245
(lp246
Vis
p247
aVis
p248
aVn
p249
ag249
aVs
p250
aVp
p251
ag250
ag249
ag251
aVsign
p252
ag249
aNag249
ag249
aNaVnl
p253
aVnl
p254
aVnl
p255
aNaNaNaVnl
p256
aVnl
p257
aVnl
p258
ag250
ag250
ag250
aNaNaNaNaNaNaNaNag250
ag250
ag250
ag250
aVsign
p259
aNag250
aV s
p260
aV s
p261
ag250
ag251
ag250
ag251
aNag251
ag250
aVwork
p262
ag250
ag250
ag250
ag250
aVwork
p263
ag250
ag251
ag250
ag251
aNag249
aNaNaNaNaNaNaNaNaNaNaNaNaVtv
p264
aVv
p265
ag249
aVsign
p266
ag249
ag249
aVnl
p267
ag249
ag249
ag267
ag267
ag267
ag267
ag266
ag266
ag249
ag249
astp268
Rp269
(dp270
b.