cigraph
Graph
p0
(I46
(lp1
(I44
I38
tp2
a(I44
I36
tp3
a(I44
I34
tp4
a(I44
I33
tp5
a(I44
I32
tp6
a(I44
I30
tp7
a(I44
I29
tp8
a(I44
I28
tp9
a(I44
I27
tp10
a(I44
I25
tp11
a(I44
I24
tp12
a(I44
I20
tp13
a(I44
I16
tp14
a(I44
I15
tp15
a(I44
I14
tp16
a(I44
I13
tp17
a(I44
I9
tp18
a(I44
I7
tp19
a(I44
I6
tp20
a(I44
I5
tp21
a(I44
I4
tp22
a(I44
I3
tp23
a(I44
I2
tp24
a(I42
I43
tp25
a(I40
I44
tp26
a(I40
I31
tp27
a(I40
I23
tp28
a(I40
I23
tp29
a(I40
I14
tp30
a(I38
I12
tp31
a(I35
I41
tp32
a(I31
I41
tp33
a(I31
I35
tp34
a(I31
I14
tp35
a(I29
I12
tp36
a(I29
I11
tp37
a(I29
I4
tp38
a(I24
I12
tp39
a(I24
I11
tp40
a(I24
I4
tp41
a(I21
I43
tp42
a(I21
I37
tp43
a(I21
I18
tp44
a(I21
I18
tp45
a(I18
I45
tp46
a(I18
I43
tp47
a(I18
I42
tp48
a(I18
I21
tp49
a(I18
I17
tp50
a(I18
I10
tp51
a(I17
I45
tp52
a(I14
I41
tp53
a(I14
I35
tp54
a(I14
I14
tp55
a(I14
I11
tp56
a(I13
I12
tp57
a(I13
I11
tp58
a(I13
I4
tp59
a(I12
I22
tp60
a(I12
I19
tp61
a(I11
I41
tp62
a(I11
I35
tp63
a(I11
I14
tp64
a(I8
I43
tp65
a(I8
I42
tp66
a(I8
I21
tp67
a(I6
I39
tp68
a(I6
I33
tp69
a(I6
I31
tp70
a(I6
I26
tp71
a(I6
I15
tp72
a(I6
I13
tp73
a(I6
I1
tp74
a(I6
I0
tp75
a(I3
I12
tp76
a(I3
I11
tp77
a(I3
I4
tp78
a(I37
I40
tp79
aI01
(dp80
(dp81
S'code'
p82
(lp83
V++ s
p84
aVreturn HUGE_VAL ;
p85
aVbreak ;
p86
aVn = 2
p87
aVif ( ( ! FIXREVERTER [ 38 ] && ( n < nl ) )
p88
aV)
p89
aVif ( nl )
p90
aVcase 'R' :
p91
aVchar c , * cp = nptr ;
p92
aVcase 'r' :
p93
aV++ cp
p94
aVv += tv * vm [ n ]
p95
aVif ( ( n < nl ) && ! ( 0 ) )
p96
aVn = 4
p97
aVv += tv * vm [ nl ]
p98
aVskip :
p99
aVcase 'D' :
p100
aVresult = strtod ( nptr , endptr )
p101
aVif ( c == 'd' || c == 'D' )
p102
aVfprintf ( stderr , "reached bug index 38\u005cn" )
p103
aVcase 'd' :
p104
aVwhile ( ( c = * cp ) != '\u005c0' )
p105
aVfprintf ( stderr , "triggered bug index 38\u005cn" )
p106
aVreturn tv ;
p107
aVn = 0
p108
aVbreak ;
p109
aVgoto skip ;
p110
aVcase '"' :
p111
aVpj_ctx_set_errno ( ctx , - 16 )
p112
aVn = 1
p113
aVbreak ;
p114
aVv = tv
p115
aVcase '\u005c'' :
p116
aVcontinue ;
p117
aVdefault :
p118
aVv = - v
p119
aVreturn HUGE_VAL ;
p120
aVreturn pj_strtod ( nptr , endptr ) ;
p121
aVif ( FIXREVERTER [ 38 ] )
p122
aVpj_ctx_set_errno ( ctx , - 16 )
p123
aVif ( ( tv = proj_strtod ( s , & s ) ) == HUGE_VAL )
p124
aVreturn v ;
p125
aV* cp = '\u005c0'
p126
aV* cp = c
p127
aVswitch ( * s )
p128
aVreturn result ;
p129
asS'name'
p130
(lp131
S'5743'
p132
aS'5749'
p133
aS'5766'
p134
aS'5767'
p135
aS'5669'
p136
aS'5668'
p137
aS'5762'
p138
aS'5764'
p139
aS'6080'
p140
aS'5765'
p141
aS'6029'
p142
aS'5645'
p143
aS'5706'
p144
aS'5721'
p145
aS'5727'
p146
aS'5725'
p147
aS'5784'
p148
aS'6043'
p149
aS'6060'
p150
aS'5688'
p151
aS'5783'
p152
aS'6068'
p153
aS'5697'
p154
aS'5790'
p155
aS'5779'
p156
aS'5778'
p157
aS'5737'
p158
aS'5771'
p159
aS'5657'
p160
aS'5773'
p161
aS'5772'
p162
aS'5739'
p163
aS'5777'
p164
aS'5720'
p165
aS'5735'
p166
aS'5594'
p167
aS'5655'
p168
aS'6018'
p169
aS'5714'
p170
aS'5751'
p171
aS'5792'
p172
aS'5576'
p173
aS'6054'
p174
aS'6037'
p175
aS'5785'
p176
aS'6035'
p177
asS'filepath'
p178
(lp179
V/home/lyl/huawei_project/insertVul/old/PROJ/proj4/src/dmstor.c
p180
ag180
ag180
ag180
ag180
ag180
ag180
ag180
aV/home/lyl/huawei_project/insertVul/old/PROJ/proj4/src/dmstor.c
p181
ag180
ag181
ag180
ag180
ag180
ag180
ag180
ag180
ag181
ag181
ag180
ag180
ag181
ag180
ag180
ag180
ag180
ag180
ag180
ag180
ag180
ag180
ag180
ag180
ag180
ag180
ag180
ag180
ag181
ag180
ag180
ag180
ag180
ag181
ag181
ag180
ag181
asS'location'
p182
(lp183
V61:3:1418:1421
p184
aV59:4:1393:1408
p185
aV55:10:1313:1318
p186
aV55:3:1306:1311
p187
aV77:2:1698:1699
p188
aV81:2:1761:1761
p189
aV57:7:1349:1350
p190
aV56:12:1332:1340
p191
aV107:4:2179:2197
p192
aV56:2:1322:1330
p193
aV125:8:2632:2636
p194
aV88:2:1852:1867
p195
aV72:8:1564:1580
p196
aV66:8:1488:1493
p197
aV65:3:1462:1478
p198
aV66:2:1482:1486
p199
aV50:2:1224:1232
p200
aV121:12:2535:2564
p201
aV114:12:2345:2364
p202
aV75:6:1649:1690
p203
aV50:12:1234:1242
p204
aV113:11:2312:2328
p205
aV73:6:1589:1632
p206
aV48:3:1195:1204
p207
aV51:3:1247:1252
p208
aV51:10:1254:1259
p209
aV63:3:1437:1446
p210
aV54:2:1293:1301
p211
aV82:3:1768:1796
p212
aV53:3:1277:1282
p213
aV53:10:1284:1289
p214
aV62:3:1426:1432
p215
aV52:2:1263:1272
p216
aV67:3:1498:1506
p217
aV64:2:1450:1457
p218
aV97:2:2003:2009
p219
aV83:3:1801:1816
p220
aV130:4:2706:2736
p221
aV71:7:1537:1551
p222
aV58:4:1359:1387
p223
aV47:6:1153:1189
p224
aV100:1:2105:2113
p225
aV120:12:2511:2521
p226
aV122:12:2578:2585
p227
aV49:10:1216:1217
p228
aV123:12:2599:2612
p229
asS'type'
p230
(lp231
VExpressionStatement
p232
aVReturnStatement
p233
aVBreakStatement
p234
aVExpressionStatement
p235
aS'Statement'
p236
ag236
aVCondition
p237
aVLabel
p238
aVIdentifierDeclStatement
p239
aVLabel
p240
aVExpressionStatement
p241
aVExpressionStatement
p242
aVCondition
p243
aVExpressionStatement
p244
aVExpressionStatement
p245
aVLabel
p246
aVLabel
p247
aVExpressionStatement
p248
aVCondition
p249
aVExpressionStatement
p250
aVLabel
p251
aVCondition
p252
aVExpressionStatement
p253
aVReturnStatement
p254
aVExpressionStatement
p255
aVBreakStatement
p256
aVGotoStatement
p257
aVLabel
p258
aVExpressionStatement
p259
aVExpressionStatement
p260
aVBreakStatement
p261
aVExpressionStatement
p262
aVLabel
p263
aVContinueStatement
p264
aVLabel
p265
aVExpressionStatement
p266
aVReturnStatement
p267
aVReturnStatement
p268
aVCondition
p269
aVExpressionStatement
p270
aVCondition
p271
aVReturnStatement
p272
aVExpressionStatement
p273
aVExpressionStatement
p274
aVCondition
p275
aVReturnStatement
p276
asS'functionId'
p277
(lp278
S'5562'
p279
aS'5562'
p280
aS'5562'
p281
aS'5562'
p282
aS'5562'
p283
aS'5562'
p284
aS'5562'
p285
aS'5562'
p286
aS'6007'
p287
aS'5562'
p288
aS'6007'
p289
aS'5562'
p290
aS'5562'
p291
aS'5562'
p292
aS'5562'
p293
aS'5562'
p294
aS'5562'
p295
aS'6007'
p296
aS'6007'
p297
aS'5562'
p298
aS'5562'
p299
aS'6007'
p300
aS'5562'
p301
aS'5562'
p302
aS'5562'
p303
aS'5562'
p304
aS'5562'
p305
aS'5562'
p306
aS'5562'
p307
aS'5562'
p308
aS'5562'
p309
aS'5562'
p310
aS'5562'
p311
aS'5562'
p312
aS'5562'
p313
aS'5562'
p314
aS'5562'
p315
aS'6007'
p316
aS'5562'
p317
aS'5562'
p318
aS'5562'
p319
aS'5562'
p320
aS'6007'
p321
aS'6007'
p322
aS'5562'
p323
aS'6007'
p324
as(dp325
S'var'
p326
(lp327
NaNaNaNaNaNaNaNaNaNaNaNaNaNaNaNaNaNaNaNaNaNaNaVcp
p328
aNaVtv
p329
aVtv
p330
aNaVtv
p331
aNaVv
p332
ag332
ag332
ag332
aVn
p333
ag333
ag333
ag333
ag333
ag333
aVc
p334
aNaNag334
aNaNaNaNaNaNaVresult
p335
ag332
ag332
ag332
ag332
ag333
ag333
ag333
aNaNag332
ag332
ag332
aVcp
p336
aVcp
p337
aVcp
p338
aNaNaNaNaNaNaNaNag333
ag333
ag333
aNastp339
Rp340
(dp341
b.